target datalayout = "e-m:e-p270:32:32-p271:32:32-p272:64:64-i64:64-i128:128-f80:128-n8:16:32:64-S128"
target triple = "x86_64-pc-linux-gnu"

%struct.H5C_class_t = type { i32, ptr, i32, i32, ptr, ptr, ptr, ptr, ptr, ptr, ptr, ptr, ptr, ptr }
%struct.H5B2_leaf_t = type { %struct.H5C_cache_entry_t, ptr, ptr, i16, ptr, ptr, i64 }
%struct.H5C_cache_entry_t = type { ptr, i64, i64, ptr, i8, ptr, i8, i8, i8, i8, i32, i8, i8, i8, i8, i8, i32, ptr, i32, i32, i32, i32, i32, i8, i8, ptr, ptr, ptr, ptr, ptr, ptr, i8, i32, i8, i64, ptr, i64, i64, i32, i8, i32, i32, i8, ptr, ptr, ptr }
%struct.H5B2_hdr_t = type { %struct.H5C_cache_entry_t, %struct.H5B2_node_ptr_t, i8, i8, i32, i32, i16, i8, ptr, i64, i64, i64, i64, i8, i8, i8, ptr, ptr, ptr, ptr, ptr, ptr, ptr, i8, ptr, ptr, i64, ptr, ptr }
%struct.H5B2_node_ptr_t = type { i64, i16, i64 }

@.str.1 = private unnamed_addr constant [102 x i8] c"generated/home/dtcxzyw/WorkSpace/Projects/compilers/llvm-opt-benchmark/bench/hdf5/hdf5/src/H5B2leaf.c\00", align 1
@H5E_BTREE_g = external global i64, align 8
@H5AC_BT2_LEAF = external constant [1 x %struct.H5C_class_t], align 16
@H5E_CANTPROTECT_g = external global i64, align 8
@.str.11 = private unnamed_addr constant [35 x i8] c"unable to protect B-tree leaf node\00", align 1
@H5E_CANTUNPROTECT_g = external global i64, align 8
@__func__.H5B2__neighbor_leaf = private unnamed_addr constant [20 x i8] c"H5B2__neighbor_leaf\00", align 1
@H5E_CANTCOMPARE_g = external global i64, align 8
@.str.16 = private unnamed_addr constant [29 x i8] c"can't compare btree2 records\00", align 1
@H5E_NOTFOUND_g = external global i64, align 8
@.str.17 = private unnamed_addr constant [54 x i8] c"'found' callback failed for B-tree neighbor operation\00", align 1
@.str.18 = private unnamed_addr constant [41 x i8] c"unable to find neighbor record in B-tree\00", align 1
@.str.19 = private unnamed_addr constant [35 x i8] c"unable to release B-tree leaf node\00", align 1

; Function Attrs: nounwind uwtable
define i32 @H5B2__neighbor_leaf(ptr noundef %0, ptr noundef %1, ptr noundef %2, i32 noundef %3, ptr noundef %4, ptr noundef %5, ptr noundef %6, ptr noundef %7) #0 {
  %9 = alloca ptr, align 8
  %10 = alloca ptr, align 8
  %11 = alloca ptr, align 8
  %12 = alloca i32, align 4
  %13 = alloca ptr, align 8
  %14 = alloca ptr, align 8
  %15 = alloca ptr, align 8
  %16 = alloca ptr, align 8
  %17 = alloca ptr, align 8
  %18 = alloca i32, align 4
  %19 = alloca i32, align 4
  %20 = alloca i32, align 4
  %21 = alloca i8, align 1
  store ptr %0, ptr %9, align 8
  store ptr %1, ptr %10, align 8
  store ptr %2, ptr %11, align 8
  store i32 %3, ptr %12, align 4
  store ptr %4, ptr %13, align 8
  store ptr %5, ptr %14, align 8
  store ptr %6, ptr %15, align 8
  store ptr %7, ptr %16, align 8
  store i32 0, ptr %18, align 4
  store i32 0, ptr %19, align 4
  store i32 0, ptr %20, align 4
  store i8 0, ptr %21, align 1
  %22 = load ptr, ptr %9, align 8
  %23 = load ptr, ptr %13, align 8
  %24 = load ptr, ptr %10, align 8
  %25 = call ptr @H5B2__protect_leaf(ptr noundef %22, ptr noundef %23, ptr noundef %24, i1 noundef zeroext false, i32 noundef 128)
  store ptr %25, ptr %17, align 8
  %26 = icmp eq ptr null, %25
  br i1 %26, label %27, label %42

27:                                               ; preds = %8
  br label %28

28:                                               ; preds = %27
  br label %29

29:                                               ; preds = %28
  br label %30

30:                                               ; preds = %29
  %31 = load i64, ptr @H5E_BTREE_g, align 8
  %32 = load i64, ptr @H5E_CANTPROTECT_g, align 8
  %33 = call i32 (ptr, ptr, i32, i64, i64, ptr, ...) @H5E_printf_stack(ptr noundef @.str.1, ptr noundef @__func__.H5B2__neighbor_leaf, i32 noundef 273, i64 noundef %31, i64 noundef %32, ptr noundef @.str.11)
  br label %34

34:                                               ; preds = %30
  store i8 1, ptr %21, align 1
  %35 = load i8, ptr %21, align 1
  %36 = trunc i8 %35 to i1
  %37 = zext i1 %36 to i8
  store i8 %37, ptr %21, align 1
  br label %38

38:                                               ; preds = %34
  br label %39

39:                                               ; preds = %38
  store i32 -1, ptr %20, align 4
  br label %171

40:                                               ; No predecessors!
  br label %41

41:                                               ; preds = %40
  br label %42

42:                                               ; preds = %41, %8
  %43 = load ptr, ptr %9, align 8
  %44 = getelementptr inbounds %struct.H5B2_hdr_t, ptr %43, i32 0, i32 27
  %45 = load ptr, ptr %44, align 8
  %46 = load ptr, ptr %17, align 8
  %47 = getelementptr inbounds %struct.H5B2_leaf_t, ptr %46, i32 0, i32 3
  %48 = load i16, ptr %47, align 8
  %49 = zext i16 %48 to i32
  %50 = load ptr, ptr %9, align 8
  %51 = getelementptr inbounds %struct.H5B2_hdr_t, ptr %50, i32 0, i32 19
  %52 = load ptr, ptr %51, align 8
  %53 = load ptr, ptr %17, align 8
  %54 = getelementptr inbounds %struct.H5B2_leaf_t, ptr %53, i32 0, i32 2
  %55 = load ptr, ptr %54, align 8
  %56 = load ptr, ptr %14, align 8
  %57 = call i32 @H5B2__locate_record(ptr noundef %45, i32 noundef %49, ptr noundef %52, ptr noundef %55, ptr noundef %56, ptr noundef %18, ptr noundef %19)
  %58 = icmp slt i32 %57, 0
  br i1 %58, label %59, label %74

59:                                               ; preds = %42
  br label %60

60:                                               ; preds = %59
  br label %61

61:                                               ; preds = %60
  br label %62

62:                                               ; preds = %61
  %63 = load i64, ptr @H5E_BTREE_g, align 8
  %64 = load i64, ptr @H5E_CANTCOMPARE_g, align 8
  %65 = call i32 (ptr, ptr, i32, i64, i64, ptr, ...) @H5E_printf_stack(ptr noundef @.str.1, ptr noundef @__func__.H5B2__neighbor_leaf, i32 noundef 277, i64 noundef %63, i64 noundef %64, ptr noundef @.str.16)
  br label %66

66:                                               ; preds = %62
  store i8 1, ptr %21, align 1
  %67 = load i8, ptr %21, align 1
  %68 = trunc i8 %67 to i1
  %69 = zext i1 %68 to i8
  store i8 %69, ptr %21, align 1
  br label %70

70:                                               ; preds = %66
  br label %71

71:                                               ; preds = %70
  store i32 -1, ptr %20, align 4
  br label %171

72:                                               ; No predecessors!
  br label %73

73:                                               ; preds = %72
  br label %74

74:                                               ; preds = %73, %42
  %75 = load i32, ptr %19, align 4
  %76 = icmp sgt i32 %75, 0
  br i1 %76, label %77, label %80

77:                                               ; preds = %74
  %78 = load i32, ptr %18, align 4
  %79 = add i32 %78, 1
  store i32 %79, ptr %18, align 4
  br label %90

80:                                               ; preds = %74
  %81 = load i32, ptr %19, align 4
  %82 = icmp eq i32 %81, 0
  br i1 %82, label %83, label %89

83:                                               ; preds = %80
  %84 = load i32, ptr %12, align 4
  %85 = icmp eq i32 %84, 1
  br i1 %85, label %86, label %89

86:                                               ; preds = %83
  %87 = load i32, ptr %18, align 4
  %88 = add i32 %87, 1
  store i32 %88, ptr %18, align 4
  br label %89

89:                                               ; preds = %86, %83, %80
  br label %90

90:                                               ; preds = %89, %77
  %91 = load i32, ptr %12, align 4
  %92 = icmp eq i32 %91, 0
  br i1 %92, label %93, label %110

93:                                               ; preds = %90
  %94 = load i32, ptr %18, align 4
  %95 = icmp ugt i32 %94, 0
  br i1 %95, label %96, label %109

96:                                               ; preds = %93
  %97 = load ptr, ptr %17, align 8
  %98 = getelementptr inbounds %struct.H5B2_leaf_t, ptr %97, i32 0, i32 2
  %99 = load ptr, ptr %98, align 8
  %100 = load ptr, ptr %9, align 8
  %101 = getelementptr inbounds %struct.H5B2_hdr_t, ptr %100, i32 0, i32 19
  %102 = load ptr, ptr %101, align 8
  %103 = load i32, ptr %18, align 4
  %104 = sub i32 %103, 1
  %105 = zext i32 %104 to i64
  %106 = getelementptr inbounds i64, ptr %102, i64 %105
  %107 = load i64, ptr %106, align 8
  %108 = getelementptr inbounds i8, ptr %99, i64 %107
  store ptr %108, ptr %11, align 8
  br label %109

109:                                              ; preds = %96, %93
  br label %130

110:                                              ; preds = %90
  %111 = load i32, ptr %18, align 4
  %112 = load ptr, ptr %17, align 8
  %113 = getelementptr inbounds %struct.H5B2_leaf_t, ptr %112, i32 0, i32 3
  %114 = load i16, ptr %113, align 8
  %115 = zext i16 %114 to i32
  %116 = icmp ult i32 %111, %115
  br i1 %116, label %117, label %129

117:                                              ; preds = %110
  %118 = load ptr, ptr %17, align 8
  %119 = getelementptr inbounds %struct.H5B2_leaf_t, ptr %118, i32 0, i32 2
  %120 = load ptr, ptr %119, align 8
  %121 = load ptr, ptr %9, align 8
  %122 = getelementptr inbounds %struct.H5B2_hdr_t, ptr %121, i32 0, i32 19
  %123 = load ptr, ptr %122, align 8
  %124 = load i32, ptr %18, align 4
  %125 = zext i32 %124 to i64
  %126 = getelementptr inbounds i64, ptr %123, i64 %125
  %127 = load i64, ptr %126, align 8
  %128 = getelementptr inbounds i8, ptr %120, i64 %127
  store ptr %128, ptr %11, align 8
  br label %129

129:                                              ; preds = %117, %110
  br label %130

130:                                              ; preds = %129, %109
  %131 = load ptr, ptr %11, align 8
  %132 = icmp ne ptr %131, null
  br i1 %132, label %133, label %155

133:                                              ; preds = %130
  %134 = load ptr, ptr %15, align 8
  %135 = load ptr, ptr %11, align 8
  %136 = load ptr, ptr %16, align 8
  %137 = call i32 %134(ptr noundef %135, ptr noundef %136)
  %138 = icmp slt i32 %137, 0
  br i1 %138, label %139, label %154

139:                                              ; preds = %133
  br label %140

140:                                              ; preds = %139
  br label %141

141:                                              ; preds = %140
  br label %142

142:                                              ; preds = %141
  %143 = load i64, ptr @H5E_BTREE_g, align 8
  %144 = load i64, ptr @H5E_NOTFOUND_g, align 8
  %145 = call i32 (ptr, ptr, i32, i64, i64, ptr, ...) @H5E_printf_stack(ptr noundef @.str.1, ptr noundef @__func__.H5B2__neighbor_leaf, i32 noundef 300, i64 noundef %143, i64 noundef %144, ptr noundef @.str.17)
  br label %146

146:                                              ; preds = %142
  store i8 1, ptr %21, align 1
  %147 = load i8, ptr %21, align 1
  %148 = trunc i8 %147 to i1
  %149 = zext i1 %148 to i8
  store i8 %149, ptr %21, align 1
  br label %150

150:                                              ; preds = %146
  br label %151

151:                                              ; preds = %150
  store i32 -1, ptr %20, align 4
  br label %171

152:                                              ; No predecessors!
  br label %153

153:                                              ; preds = %152
  br label %154

154:                                              ; preds = %153, %133
  br label %170

155:                                              ; preds = %130
  br label %156

156:                                              ; preds = %155
  br label %157

157:                                              ; preds = %156
  br label %158

158:                                              ; preds = %157
  %159 = load i64, ptr @H5E_BTREE_g, align 8
  %160 = load i64, ptr @H5E_NOTFOUND_g, align 8
  %161 = call i32 (ptr, ptr, i32, i64, i64, ptr, ...) @H5E_printf_stack(ptr noundef @.str.1, ptr noundef @__func__.H5B2__neighbor_leaf, i32 noundef 303, i64 noundef %159, i64 noundef %160, ptr noundef @.str.18)
  br label %162

162:                                              ; preds = %158
  store i8 1, ptr %21, align 1
  %163 = load i8, ptr %21, align 1
  %164 = trunc i8 %163 to i1
  %165 = zext i1 %164 to i8
  store i8 %165, ptr %21, align 1
  br label %166

166:                                              ; preds = %162
  br label %167

167:                                              ; preds = %166
  store i32 -1, ptr %20, align 4
  br label %171

168:                                              ; No predecessors!
  br label %169

169:                                              ; preds = %168
  br label %170

170:                                              ; preds = %169, %154
  br label %171

171:                                              ; preds = %170, %167, %151, %71, %39
  %172 = load ptr, ptr %17, align 8
  %173 = icmp ne ptr %172, null
  br i1 %173, label %174, label %197

174:                                              ; preds = %171
  %175 = load ptr, ptr %9, align 8
  %176 = getelementptr inbounds %struct.H5B2_hdr_t, ptr %175, i32 0, i32 8
  %177 = load ptr, ptr %176, align 8
  %178 = load ptr, ptr %10, align 8
  %179 = getelementptr inbounds %struct.H5B2_node_ptr_t, ptr %178, i32 0, i32 0
  %180 = load i64, ptr %179, align 8
  %181 = load ptr, ptr %17, align 8
  %182 = call i32 @H5AC_unprotect(ptr noundef %177, ptr noundef @H5AC_BT2_LEAF, i64 noundef %180, ptr noundef %181, i32 noundef 0)
  %183 = icmp slt i32 %182, 0
  br i1 %183, label %184, label %197

184:                                              ; preds = %174
  br label %185

185:                                              ; preds = %184
  br label %186

186:                                              ; preds = %185
  br label %187

187:                                              ; preds = %186
  %188 = load i64, ptr @H5E_BTREE_g, align 8
  %189 = load i64, ptr @H5E_CANTUNPROTECT_g, align 8
  %190 = call i32 (ptr, ptr, i32, i64, i64, ptr, ...) @H5E_printf_stack(ptr noundef @.str.1, ptr noundef @__func__.H5B2__neighbor_leaf, i32 noundef 308, i64 noundef %188, i64 noundef %189, ptr noundef @.str.19)
  br label %191

191:                                              ; preds = %187
  store i8 1, ptr %21, align 1
  %192 = load i8, ptr %21, align 1
  %193 = trunc i8 %192 to i1
  %194 = zext i1 %193 to i8
  store i8 %194, ptr %21, align 1
  br label %195

195:                                              ; preds = %191
  store i32 -1, ptr %20, align 4
  br label %196

196:                                              ; preds = %195
  br label %197

197:                                              ; preds = %196, %174, %171
  %198 = load i32, ptr %20, align 4
  ret i32 %198
}