; Function Attrs: nounwind uwtable
define range(i32 -1, 1) i32 @H5B2__neighbor_leaf(ptr noundef %0, ptr noundef captures(none) %1, ptr noundef %2, i32 noundef %3, ptr noundef %4, ptr noundef %5, ptr noundef readonly captures(none) %6, ptr noundef %7) local_unnamed_addr #0 {
  %9 = alloca i32, align 4
  %10 = alloca i32, align 4
  store i32 0, ptr %9, align 4
  store i32 0, ptr %10, align 4
  %11 = tail call ptr @H5B2__protect_leaf(ptr noundef %0, ptr noundef %4, ptr noundef %1, i1 noundef zeroext false, i32 noundef 128)
  %12 = icmp eq ptr %11, null
  br i1 %12, label %65, label %13

13:                                               ; preds = %8
  %14 = getelementptr inbounds nuw i8, ptr %0, i64 424
  %15 = load ptr, ptr %14, align 8
  %16 = getelementptr inbounds nuw i8, ptr %11, i64 264
  %17 = load i16, ptr %16, align 8
  %18 = zext i16 %17 to i32
  %19 = getelementptr inbounds nuw i8, ptr %0, i64 360
  %20 = load ptr, ptr %19, align 8
  %21 = getelementptr inbounds nuw i8, ptr %11, i64 256
  %22 = load ptr, ptr %21, align 8
  %23 = call i32 @H5B2__locate_record(ptr noundef %15, i32 noundef %18, ptr noundef %20, ptr noundef %22, ptr noundef %5, ptr noundef nonnull %9, ptr noundef nonnull %10) #5
  %24 = icmp slt i32 %23, 0
  br i1 %24, label %25, label %29

25:                                               ; preds = %13
  %26 = load i64, ptr @H5E_BTREE_g, align 8
  %27 = load i64, ptr @H5E_CANTCOMPARE_g, align 8
  %28 = call i32 (ptr, ptr, i32, i64, i64, ptr, ...) @H5E_printf_stack(ptr noundef nonnull @.str.1, ptr noundef nonnull @__func__.H5B2__neighbor_leaf, i32 noundef 277, i64 noundef %26, i64 noundef %27, ptr noundef nonnull @.str.16) #5
  br label %69

29:                                               ; preds = %13
  %30 = load i32, ptr %10, align 4
  %31 = icmp sgt i32 %30, 0
  br i1 %31, label %32, label %35

32:                                               ; preds = %29
  %33 = load i32, ptr %9, align 4
  %34 = add i32 %33, 1
  store i32 %34, ptr %9, align 4
  br label %39

35:                                               ; preds = %29
  %36 = icmp eq i32 %30, 0
  %37 = icmp eq i32 %3, 1
  %or.cond = and i1 %37, %36
  %.pre.pre = load i32, ptr %9, align 4
  br i1 %or.cond, label %.thread, label %39

.thread:                                          ; preds = %35
  %38 = add i32 %.pre.pre, 1
  store i32 %38, ptr %9, align 4
  br label %44

39:                                               ; preds = %35, %32
  %.pre = phi i32 [ %.pre.pre, %35 ], [ %34, %32 ]
  %40 = icmp eq i32 %3, 0
  br i1 %40, label %41, label %44

41:                                               ; preds = %39
  %.not = icmp eq i32 %.pre, 0
  br i1 %.not, label %53, label %42

42:                                               ; preds = %41
  %43 = add i32 %.pre, -1
  br label %.sink.split

44:                                               ; preds = %.thread, %39
  %45 = phi i32 [ %38, %.thread ], [ %.pre, %39 ]
  %46 = load i16, ptr %16, align 8
  %47 = zext i16 %46 to i32
  %48 = icmp ult i32 %45, %47
  br i1 %48, label %.sink.split, label %53

.sink.split:                                      ; preds = %44, %42
  %.sink45 = phi i32 [ %43, %42 ], [ %45, %44 ]
  %.sink = load ptr, ptr %21, align 8
  %.sink43 = load ptr, ptr %19, align 8
  %49 = zext i32 %.sink45 to i64
  %50 = getelementptr inbounds nuw i64, ptr %.sink43, i64 %49
  %51 = load i64, ptr %50, align 8
  %52 = getelementptr inbounds i8, ptr %.sink, i64 %51
  br label %53

53:                                               ; preds = %.sink.split, %44, %41
  %.029 = phi ptr [ %2, %41 ], [ %2, %44 ], [ %52, %.sink.split ]
  %.not35 = icmp eq ptr %.029, null
  br i1 %.not35, label %61, label %54

54:                                               ; preds = %53
  %55 = call i32 %6(ptr noundef nonnull %.029, ptr noundef %7) #5
  %56 = icmp slt i32 %55, 0
  br i1 %56, label %57, label %69

57:                                               ; preds = %54
  %58 = load i64, ptr @H5E_BTREE_g, align 8
  %59 = load i64, ptr @H5E_NOTFOUND_g, align 8
  %60 = call i32 (ptr, ptr, i32, i64, i64, ptr, ...) @H5E_printf_stack(ptr noundef nonnull @.str.1, ptr noundef nonnull @__func__.H5B2__neighbor_leaf, i32 noundef 300, i64 noundef %58, i64 noundef %59, ptr noundef nonnull @.str.17) #5
  br label %69

61:                                               ; preds = %53
  %62 = load i64, ptr @H5E_BTREE_g, align 8
  %63 = load i64, ptr @H5E_NOTFOUND_g, align 8
  %64 = call i32 (ptr, ptr, i32, i64, i64, ptr, ...) @H5E_printf_stack(ptr noundef nonnull @.str.1, ptr noundef nonnull @__func__.H5B2__neighbor_leaf, i32 noundef 303, i64 noundef %62, i64 noundef %63, ptr noundef nonnull @.str.18) #5
  br label %69

65:                                               ; preds = %8
  %66 = load i64, ptr @H5E_BTREE_g, align 8
  %67 = load i64, ptr @H5E_CANTPROTECT_g, align 8
  %68 = tail call i32 (ptr, ptr, i32, i64, i64, ptr, ...) @H5E_printf_stack(ptr noundef nonnull @.str.1, ptr noundef nonnull @__func__.H5B2__neighbor_leaf, i32 noundef 273, i64 noundef %66, i64 noundef %67, ptr noundef nonnull @.str.11) #5
  br label %79

69:                                               ; preds = %54, %61, %57, %25
  %.0.ph = phi i32 [ -1, %61 ], [ 0, %54 ], [ -1, %57 ], [ -1, %25 ]
  %70 = getelementptr inbounds nuw i8, ptr %0, i64 288
  %71 = load ptr, ptr %70, align 8
  %72 = load i64, ptr %1, align 8
  %73 = call i32 @H5AC_unprotect(ptr noundef %71, ptr noundef nonnull @H5AC_BT2_LEAF, i64 noundef %72, ptr noundef nonnull %11, i32 noundef 0) #5
  %74 = icmp slt i32 %73, 0
  br i1 %74, label %75, label %79

75:                                               ; preds = %69
  %76 = load i64, ptr @H5E_BTREE_g, align 8
  %77 = load i64, ptr @H5E_CANTUNPROTECT_g, align 8
  %78 = call i32 (ptr, ptr, i32, i64, i64, ptr, ...) @H5E_printf_stack(ptr noundef nonnull @.str.1, ptr noundef nonnull @__func__.H5B2__neighbor_leaf, i32 noundef 308, i64 noundef %76, i64 noundef %77, ptr noundef nonnull @.str.19) #5
  br label %79

79:                                               ; preds = %65, %75, %69
  %.1 = phi i32 [ -1, %75 ], [ %.0.ph, %69 ], [ -1, %65 ]
  ret i32 %.1
}